; Function Attrs: mustprogress uwtable
define noundef nonnull align 8 dereferenceable(16) ptr @_ZN5arrow9utf8_viewEv() local_unnamed_addr #1 personality ptr @__gxx_personality_v0 {
  %1 = alloca %"class.std::shared_ptr.421", align 8
  %2 = load atomic i8, ptr @_ZGVZN5arrow9utf8_viewEvE4type acquire, align 8
  %3 = icmp eq i8 %2, 0
  br i1 %3, label %4, label %12, !prof !2075

4:                                                ; preds = %0
  %5 = tail call i32 @__cxa_guard_acquire(ptr nonnull @_ZGVZN5arrow9utf8_viewEvE4type) #38
  %.not = icmp eq i32 %5, 0
  br i1 %.not, label %12, label %6

6:                                                ; preds = %4
  call void @llvm.lifetime.start.p0(i64 16, ptr nonnull %1) #38
  invoke void @_ZSt11make_sharedIN5arrow14StringViewTypeEJEESt10shared_ptrINSt9enable_ifIXntsr8is_arrayIT_EE5valueES4_E4typeEEDpOT0_(ptr dead_on_unwind nonnull writable sret(%"class.std::shared_ptr.421") align 8 %1)
          to label %7 unwind label %13

7:                                                ; preds = %6
  %8 = load ptr, ptr %1, align 8, !tbaa !2152
  store ptr %8, ptr @_ZZN5arrow9utf8_viewEvE4type, align 8, !tbaa !333
  %9 = getelementptr inbounds nuw i8, ptr %1, i64 8
  %10 = load ptr, ptr %9, align 8, !tbaa !352
  store ptr null, ptr %9, align 8, !tbaa !352
  store ptr %10, ptr getelementptr inbounds nuw (i8, ptr @_ZZN5arrow9utf8_viewEvE4type, i64 8), align 8, !tbaa !352
  store ptr null, ptr %1, align 8, !tbaa !2152
  call void @_ZNSt12__shared_ptrIN5arrow14StringViewTypeELN9__gnu_cxx12_Lock_policyE2EED2Ev(ptr noundef nonnull align 8 dereferenceable(16) %1) #38
  call void @llvm.lifetime.end.p0(i64 16, ptr nonnull %1) #38
  %11 = call i32 @__cxa_atexit(ptr nonnull @_ZNSt12__shared_ptrIN5arrow8DataTypeELN9__gnu_cxx12_Lock_policyE2EED2Ev, ptr nonnull @_ZZN5arrow9utf8_viewEvE4type, ptr nonnull @__dso_handle) #38
  call void @__cxa_guard_release(ptr nonnull @_ZGVZN5arrow9utf8_viewEvE4type) #38
  br label %12

12:                                               ; preds = %7, %4, %0
  ret ptr @_ZZN5arrow9utf8_viewEvE4type

13:                                               ; preds = %6
  %14 = landingpad { ptr, i32 }
          cleanup
  call void @llvm.lifetime.end.p0(i64 16, ptr nonnull %1) #38
  call void @__cxa_guard_abort(ptr nonnull @_ZGVZN5arrow9utf8_viewEvE4type) #38
  resume { ptr, i32 } %14
}